target datalayout = "e-m:e-p270:32:32-p271:32:32-p272:64:64-i64:64-i128:128-f80:128-n8:16:32:64-S128"
target triple = "x86_64-pc-linux-gnu"

%struct.Lpk_Set_t_ = type { i8, i8, i8, i8, i32, i32 }

@.str = private unnamed_addr constant [7 x i8] c"%2d : \00", align 1
@.str.1 = private unnamed_addr constant [11 x i8] c"Var = %c  \00", align 1
@.str.2 = private unnamed_addr constant [13 x i8] c"Size = %2d  \00", align 1
@.str.3 = private unnamed_addr constant [13 x i8] c"Over = %2d  \00", align 1
@.str.4 = private unnamed_addr constant [13 x i8] c"SRed = %2d  \00", align 1
@.str.5 = private unnamed_addr constant [15 x i8] c"              \00", align 1
@.str.6 = private unnamed_addr constant [2 x i8] c"\0A\00", align 1
@.str.11 = private unnamed_addr constant [3 x i8] c"%c\00", align 1
@.str.12 = private unnamed_addr constant [2 x i8] c" \00", align 1

; Function Attrs: nounwind uwtable
define internal void @Lpk_PrintSetOne(i32 noundef %0) #0 {
  %2 = alloca i32, align 4
  %3 = alloca i32, align 4
  store i32 %0, ptr %2, align 4, !tbaa !8
  call void @llvm.lifetime.start.p0(i64 4, ptr %3) #7
  store i32 0, ptr %3, align 4, !tbaa !8
  br label %4

4:                                                ; preds = %18, %1
  %5 = load i32, ptr %3, align 4, !tbaa !8
  %6 = icmp ult i32 %5, 16
  br i1 %6, label %7, label %21

7:                                                ; preds = %4
  %8 = load i32, ptr %2, align 4, !tbaa !8
  %9 = load i32, ptr %3, align 4, !tbaa !8
  %10 = shl i32 1, %9
  %11 = and i32 %8, %10
  %12 = icmp ne i32 %11, 0
  br i1 %12, label %13, label %17

13:                                               ; preds = %7
  %14 = load i32, ptr %3, align 4, !tbaa !8
  %15 = add i32 97, %14
  %16 = call i32 (ptr, ...) @printf(ptr noundef @.str.11, i32 noundef %15)
  br label %17

17:                                               ; preds = %13, %7
  br label %18

18:                                               ; preds = %17
  %19 = load i32, ptr %3, align 4, !tbaa !8
  %20 = add i32 %19, 1
  store i32 %20, ptr %3, align 4, !tbaa !8
  br label %4, !llvm.loop !47

21:                                               ; preds = %4
  %22 = call i32 (ptr, ...) @printf(ptr noundef @.str.12)
  call void @llvm.lifetime.end.p0(i64 4, ptr %3) #7
  ret void
}

; Function Attrs: nounwind uwtable
define void @Lpk_MapSuppPrintSet(ptr noundef %0, i32 noundef %1) #0 {
  %3 = alloca ptr, align 8
  %4 = alloca i32, align 4
  %5 = alloca i32, align 4
  store ptr %0, ptr %3, align 8, !tbaa !32
  store i32 %1, ptr %4, align 4, !tbaa !8
  call void @llvm.lifetime.start.p0(i64 4, ptr %5) #7
  %6 = load ptr, ptr %3, align 8, !tbaa !32
  %7 = getelementptr inbounds nuw %struct.Lpk_Set_t_, ptr %6, i32 0, i32 4
  %8 = load i32, ptr %7, align 4, !tbaa !39
  %9 = load ptr, ptr %3, align 8, !tbaa !32
  %10 = getelementptr inbounds nuw %struct.Lpk_Set_t_, ptr %9, i32 0, i32 5
  %11 = load i32, ptr %10, align 4, !tbaa !41
  %12 = or i32 %8, %11
  store i32 %12, ptr %5, align 4, !tbaa !8
  %13 = load i32, ptr %4, align 4, !tbaa !8
  %14 = call i32 (ptr, ...) @printf(ptr noundef @.str, i32 noundef %13)
  %15 = load ptr, ptr %3, align 8, !tbaa !32
  %16 = getelementptr inbounds nuw %struct.Lpk_Set_t_, ptr %15, i32 0, i32 0
  %17 = load i8, ptr %16, align 4, !tbaa !42
  %18 = sext i8 %17 to i32
  %19 = add nsw i32 97, %18
  %20 = call i32 (ptr, ...) @printf(ptr noundef @.str.1, i32 noundef %19)
  %21 = load ptr, ptr %3, align 8, !tbaa !32
  %22 = getelementptr inbounds nuw %struct.Lpk_Set_t_, ptr %21, i32 0, i32 3
  %23 = load i8, ptr %22, align 1, !tbaa !43
  %24 = sext i8 %23 to i32
  %25 = call i32 (ptr, ...) @printf(ptr noundef @.str.2, i32 noundef %24)
  %26 = load ptr, ptr %3, align 8, !tbaa !32
  %27 = getelementptr inbounds nuw %struct.Lpk_Set_t_, ptr %26, i32 0, i32 1
  %28 = load i8, ptr %27, align 1, !tbaa !44
  %29 = sext i8 %28 to i32
  %30 = call i32 (ptr, ...) @printf(ptr noundef @.str.3, i32 noundef %29)
  %31 = load ptr, ptr %3, align 8, !tbaa !32
  %32 = getelementptr inbounds nuw %struct.Lpk_Set_t_, ptr %31, i32 0, i32 2
  %33 = load i8, ptr %32, align 2, !tbaa !45
  %34 = sext i8 %33 to i32
  %35 = call i32 (ptr, ...) @printf(ptr noundef @.str.4, i32 noundef %34)
  %36 = load i32, ptr %5, align 4, !tbaa !8
  call void @Lpk_PrintSetOne(i32 noundef %36)
  %37 = call i32 (ptr, ...) @printf(ptr noundef @.str.5)
  %38 = load i32, ptr %5, align 4, !tbaa !8
  %39 = lshr i32 %38, 16
  call void @Lpk_PrintSetOne(i32 noundef %39)
  %40 = call i32 (ptr, ...) @printf(ptr noundef @.str.6)
  call void @llvm.lifetime.end.p0(i64 4, ptr %5) #7
  ret void
}