; Function Attrs: nofree nounwind uwtable
define void @Lpk_MapSuppPrintSet(ptr noundef readonly captures(none) %0, i32 noundef %1) local_unnamed_addr #4 {
  %3 = getelementptr inbounds nuw i8, ptr %0, i64 4
  %4 = load i32, ptr %3, align 4, !tbaa !32
  %5 = getelementptr inbounds nuw i8, ptr %0, i64 8
  %6 = load i32, ptr %5, align 4, !tbaa !34
  %7 = or i32 %6, %4
  %8 = tail call i32 (ptr, ...) @printf(ptr noundef nonnull dereferenceable(1) @.str, i32 noundef %1)
  %9 = load i8, ptr %0, align 4, !tbaa !35
  %10 = sext i8 %9 to i32
  %11 = add nsw i32 %10, 97
  %12 = tail call i32 (ptr, ...) @printf(ptr noundef nonnull dereferenceable(1) @.str.1, i32 noundef %11)
  %13 = getelementptr inbounds nuw i8, ptr %0, i64 3
  %14 = load i8, ptr %13, align 1, !tbaa !36
  %15 = sext i8 %14 to i32
  %16 = tail call i32 (ptr, ...) @printf(ptr noundef nonnull dereferenceable(1) @.str.2, i32 noundef %15)
  %17 = getelementptr inbounds nuw i8, ptr %0, i64 1
  %18 = load i8, ptr %17, align 1, !tbaa !37
  %19 = sext i8 %18 to i32
  %20 = tail call i32 (ptr, ...) @printf(ptr noundef nonnull dereferenceable(1) @.str.3, i32 noundef %19)
  %21 = getelementptr inbounds nuw i8, ptr %0, i64 2
  %22 = load i8, ptr %21, align 2, !tbaa !38
  %23 = sext i8 %22 to i32
  %24 = tail call i32 (ptr, ...) @printf(ptr noundef nonnull dereferenceable(1) @.str.4, i32 noundef %23)
  br label %25

25:                                               ; preds = %30, %2
  %.06.i = phi i32 [ 0, %2 ], [ %31, %30 ]
  %26 = shl nuw nsw i32 1, %.06.i
  %27 = and i32 %26, %7
  %.not.i = icmp eq i32 %27, 0
  br i1 %.not.i, label %30, label %28

28:                                               ; preds = %25
  %29 = add nuw nsw i32 %.06.i, 97
  %putchar5.i = tail call i32 @putchar(i32 %29)
  br label %30

30:                                               ; preds = %28, %25
  %31 = add nuw nsw i32 %.06.i, 1
  %exitcond.not.i = icmp eq i32 %31, 16
  br i1 %exitcond.not.i, label %Lpk_PrintSetOne.exit, label %25, !llvm.loop !40

Lpk_PrintSetOne.exit:                             ; preds = %30
  %putchar.i = tail call i32 @putchar(i32 32)
  %32 = tail call i32 (ptr, ...) @printf(ptr noundef nonnull dereferenceable(1) @.str.5)
  %33 = lshr i32 %7, 16
  br label %34

34:                                               ; preds = %39, %Lpk_PrintSetOne.exit
  %.06.i8 = phi i32 [ 0, %Lpk_PrintSetOne.exit ], [ %40, %39 ]
  %35 = shl nuw nsw i32 1, %.06.i8
  %36 = and i32 %35, %33
  %.not.i9 = icmp eq i32 %36, 0
  br i1 %.not.i9, label %39, label %37

37:                                               ; preds = %34
  %38 = add nuw nsw i32 %.06.i8, 97
  %putchar5.i10 = tail call i32 @putchar(i32 %38)
  br label %39

39:                                               ; preds = %37, %34
  %40 = add nuw nsw i32 %.06.i8, 1
  %exitcond.not.i11 = icmp eq i32 %40, 16
  br i1 %exitcond.not.i11, label %Lpk_PrintSetOne.exit13, label %34, !llvm.loop !40

Lpk_PrintSetOne.exit13:                           ; preds = %39
  %putchar.i12 = tail call i32 @putchar(i32 32)
  %putchar = tail call i32 @putchar(i32 10)
  ret void
}